; Function Attrs: mustprogress nofree norecurse nosync nounwind willreturn memory(readwrite, inaccessiblemem: none) uwtable
define hidden void @_ZN11th_rewriter15set_flat_and_orEb(ptr nocapture noundef nonnull readonly align 8 dereferenceable(16) %this, i1 noundef zeroext %f) local_unnamed_addr #5 align 2 {
entry:
  %0 = load ptr, ptr %this, align 8
  %1 = getelementptr i8, ptr %0, i64 144
  %.val = load ptr, ptr %1, align 8
  %frombool.i = zext i1 %f to i8
  %m_flat_and_or.i = getelementptr inbounds i8, ptr %.val, i64 8
  store i8 %frombool.i, ptr %m_flat_and_or.i, align 8
  ret void
}